; Function Attrs: mustprogress nounwind uwtable
define dso_local void @_ZN4llvm4yaml6Output19outputUpToEndOfLineENS_9StringRefE(ptr noundef nonnull align 8 dereferenceable(128) %0, ptr %1, i64 %2) local_unnamed_addr #6 align 2 {
  %4 = getelementptr inbounds nuw i8, ptr %0, i64 80
  %5 = load i32, ptr %4, align 8
  %6 = trunc i64 %2 to i32
  %7 = add i32 %5, %6
  store i32 %7, ptr %4, align 8
  %8 = getelementptr inbounds nuw i8, ptr %0, i64 16
  %9 = load ptr, ptr %8, align 8
  %10 = getelementptr inbounds nuw i8, ptr %9, i64 24
  %11 = load ptr, ptr %10, align 8
  %12 = getelementptr inbounds nuw i8, ptr %9, i64 32
  %13 = load ptr, ptr %12, align 8
  %14 = ptrtoint ptr %11 to i64
  %15 = ptrtoint ptr %13 to i64
  %16 = sub i64 %14, %15
  %17 = icmp ugt i64 %2, %16
  br i1 %17, label %18, label %20

18:                                               ; preds = %3
  %19 = tail call noundef nonnull align 8 dereferenceable(48) ptr @_ZN4llvm11raw_ostream5writeEPKcm(ptr noundef nonnull align 8 dereferenceable(48) %9, ptr noundef %1, i64 noundef %2) #32
  br label %_ZN4llvm4yaml6Output6outputENS_9StringRefE.exit

20:                                               ; preds = %3
  %.not.i.i = icmp eq i64 %2, 0
  br i1 %.not.i.i, label %_ZN4llvm4yaml6Output6outputENS_9StringRefE.exit, label %21

21:                                               ; preds = %20
  tail call void @llvm.memcpy.p0.p0.i64(ptr align 1 %13, ptr align 1 %1, i64 %2, i1 false)
  %22 = load ptr, ptr %12, align 8
  %23 = getelementptr inbounds i8, ptr %22, i64 %2
  store ptr %23, ptr %12, align 8
  br label %_ZN4llvm4yaml6Output6outputENS_9StringRefE.exit

_ZN4llvm4yaml6Output6outputENS_9StringRefE.exit:  ; preds = %18, %20, %21
  %24 = getelementptr inbounds nuw i8, ptr %0, i64 32
  %25 = tail call noundef zeroext i1 @_ZNK4llvm15SmallVectorBaseIjE5emptyEv(ptr noundef nonnull align 8 dereferenceable(16) %24) #32
  br i1 %25, label %42, label %26

26:                                               ; preds = %_ZN4llvm4yaml6Output6outputENS_9StringRefE.exit
  %27 = load ptr, ptr %24, align 8
  %28 = tail call noundef i64 @_ZNK4llvm15SmallVectorBaseIjE4sizeEv(ptr noundef nonnull align 8 dereferenceable(16) %24) #32
  %29 = getelementptr inbounds i32, ptr %27, i64 %28
  %30 = getelementptr inbounds i8, ptr %29, i64 -4
  %31 = load i32, ptr %30, align 4
  %32 = and i32 %31, -2
  %33 = icmp eq i32 %32, 2
  br i1 %33, label %44, label %34

34:                                               ; preds = %26
  %35 = load ptr, ptr %24, align 8
  %36 = tail call noundef i64 @_ZNK4llvm15SmallVectorBaseIjE4sizeEv(ptr noundef nonnull align 8 dereferenceable(16) %24) #32
  %37 = getelementptr inbounds i32, ptr %35, i64 %36
  %38 = getelementptr inbounds i8, ptr %37, i64 -4
  %39 = load i32, ptr %38, align 4
  %40 = and i32 %39, -2
  %41 = icmp eq i32 %40, 6
  br i1 %41, label %44, label %42

42:                                               ; preds = %34, %_ZN4llvm4yaml6Output6outputENS_9StringRefE.exit
  %43 = getelementptr inbounds nuw i8, ptr %0, i64 96
  store ptr @.str.14, ptr %43, align 8
  %.sroa.2.0..sroa_idx = getelementptr inbounds nuw i8, ptr %0, i64 104
  store i64 1, ptr %.sroa.2.0..sroa_idx, align 8
  br label %44

44:                                               ; preds = %42, %34, %26
  ret void
}